; Function Attrs: nounwind uwtable
define internal noundef i32 @gitmodules_update_clone_config(ptr noundef %0, ptr noundef %1, ptr noundef readonly captures(none) %2, ptr noundef writeonly captures(none) %3) #0 {
  %5 = tail call i32 @strcmp(ptr noundef nonnull dereferenceable(1) %0, ptr noundef nonnull dereferenceable(20) @.str.41) #16
  %.not = icmp eq i32 %5, 0
  br i1 %.not, label %6, label %15

6:                                                ; preds = %4
  %7 = load ptr, ptr %2, align 8, !tbaa !111
  %8 = tail call i32 @git_config_int(ptr noundef nonnull %0, ptr noundef %1, ptr noundef %7) #15
  %9 = icmp slt i32 %8, 0
  br i1 %9, label %10, label %12

10:                                               ; preds = %6
  %11 = tail call fastcc ptr @_(ptr noundef nonnull @.str.1)
  tail call void (ptr, ...) @die(ptr noundef %11) #17
  unreachable

12:                                               ; preds = %6
  %.not.i = icmp eq i32 %8, 0
  br i1 %.not.i, label %13, label %parse_submodule_fetchjobs.exit

13:                                               ; preds = %12
  %14 = tail call i32 @online_cpus() #15
  br label %parse_submodule_fetchjobs.exit

parse_submodule_fetchjobs.exit:                   ; preds = %12, %13
  %.0.i = phi i32 [ %8, %12 ], [ %14, %13 ]
  store i32 %.0.i, ptr %3, align 4, !tbaa !26
  br label %15

15:                                               ; preds = %parse_submodule_fetchjobs.exit, %4
  ret i32 0
}